target datalayout = "e-m:e-p270:32:32-p271:32:32-p272:64:64-i64:64-i128:128-f80:128-n8:16:32:64-S128"
target triple = "x86_64-unknown-linux-gnu"

@error_abort = external global ptr, align 8
@.str.7 = private unnamed_addr constant [1 x i8] zeroinitializer, align 1

; Function Attrs: nounwind sspstrong uwtable
define dso_local zeroext i1 @qdev_prop_set_drive_err(ptr noundef %dev, ptr noundef %name, ptr noundef %value, ptr noundef %errp) #0 {
entry:
  %dev.addr = alloca ptr, align 8
  %name.addr = alloca ptr, align 8
  %value.addr = alloca ptr, align 8
  %errp.addr = alloca ptr, align 8
  %ref = alloca ptr, align 8
  %bs = alloca ptr, align 8
  store ptr %dev, ptr %dev.addr, align 8
  store ptr %name, ptr %name.addr, align 8
  store ptr %value, ptr %value.addr, align 8
  store ptr %errp, ptr %errp.addr, align 8
  store ptr @.str.7, ptr %ref, align 8
  %0 = load ptr, ptr %value.addr, align 8
  %tobool = icmp ne ptr %0, null
  br i1 %tobool, label %if.then, label %if.end8

if.then:                                          ; preds = %entry
  %1 = load ptr, ptr %value.addr, align 8
  %call = call ptr @blk_name(ptr noundef %1)
  store ptr %call, ptr %ref, align 8
  %2 = load ptr, ptr %ref, align 8
  %3 = load i8, ptr %2, align 1
  %tobool1 = icmp ne i8 %3, 0
  br i1 %tobool1, label %if.end7, label %if.then2

if.then2:                                         ; preds = %if.then
  %4 = load ptr, ptr %value.addr, align 8
  %call3 = call ptr @blk_bs(ptr noundef %4)
  store ptr %call3, ptr %bs, align 8
  %5 = load ptr, ptr %bs, align 8
  %tobool4 = icmp ne ptr %5, null
  br i1 %tobool4, label %if.then5, label %if.end

if.then5:                                         ; preds = %if.then2
  %6 = load ptr, ptr %bs, align 8
  %call6 = call ptr @bdrv_get_node_name(ptr noundef %6)
  store ptr %call6, ptr %ref, align 8
  br label %if.end

if.end:                                           ; preds = %if.then5, %if.then2
  br label %if.end7

if.end7:                                          ; preds = %if.end, %if.then
  br label %if.end8

if.end8:                                          ; preds = %if.end7, %entry
  %7 = load ptr, ptr %dev.addr, align 8
  %8 = load ptr, ptr %name.addr, align 8
  %9 = load ptr, ptr %ref, align 8
  %10 = load ptr, ptr %errp.addr, align 8
  %call9 = call zeroext i1 @object_property_set_str(ptr noundef %7, ptr noundef %8, ptr noundef %9, ptr noundef %10)
  ret i1 %call9
}

; Function Attrs: nounwind sspstrong uwtable
define dso_local void @qdev_prop_set_drive(ptr noundef %dev, ptr noundef %name, ptr noundef %value) #0 {
entry:
  %dev.addr = alloca ptr, align 8
  %name.addr = alloca ptr, align 8
  %value.addr = alloca ptr, align 8
  store ptr %dev, ptr %dev.addr, align 8
  store ptr %name, ptr %name.addr, align 8
  store ptr %value, ptr %value.addr, align 8
  %0 = load ptr, ptr %dev.addr, align 8
  %1 = load ptr, ptr %name.addr, align 8
  %2 = load ptr, ptr %value.addr, align 8
  %call = call zeroext i1 @qdev_prop_set_drive_err(ptr noundef %0, ptr noundef %1, ptr noundef %2, ptr noundef @error_abort)
  ret void
}