; Function Attrs: nounwind sspstrong uwtable
define dso_local void @qdev_prop_set_drive(ptr noundef %dev, ptr noundef %name, ptr noundef %value) local_unnamed_addr #0 {
entry:
  %tobool.not.i = icmp eq ptr %value, null
  br i1 %tobool.not.i, label %qdev_prop_set_drive_err.exit, label %if.then.i

if.then.i:                                        ; preds = %entry
  %call.i = tail call ptr @blk_name(ptr noundef nonnull %value) #10
  %0 = load i8, ptr %call.i, align 1
  %tobool1.not.i = icmp eq i8 %0, 0
  br i1 %tobool1.not.i, label %if.then2.i, label %qdev_prop_set_drive_err.exit

if.then2.i:                                       ; preds = %if.then.i
  %call3.i = tail call ptr @blk_bs(ptr noundef nonnull %value) #10
  %tobool4.not.i = icmp eq ptr %call3.i, null
  br i1 %tobool4.not.i, label %qdev_prop_set_drive_err.exit, label %if.then5.i

if.then5.i:                                       ; preds = %if.then2.i
  %call6.i = tail call ptr @bdrv_get_node_name(ptr noundef nonnull %call3.i) #10
  br label %qdev_prop_set_drive_err.exit

qdev_prop_set_drive_err.exit:                     ; preds = %entry, %if.then.i, %if.then2.i, %if.then5.i
  %ref.0.i = phi ptr [ %call.i, %if.then.i ], [ %call6.i, %if.then5.i ], [ %call.i, %if.then2.i ], [ @.str.7, %entry ]
  %call9.i = tail call zeroext i1 @object_property_set_str(ptr noundef %dev, ptr noundef %name, ptr noundef %ref.0.i, ptr noundef nonnull @error_abort) #10
  ret void
}